; ModuleID = '30/3086.c'
source_filename = "30/3086.c"
target datalayout = "e-m:e-p270:32:32-p271:32:32-p272:64:64-i64:64-f80:128-n8:16:32:64-S128"
target triple = "x86_64-pc-linux-gnu"

@.str = private unnamed_addr constant [3 x i8] c"%d\00", align 1

; Function Attrs: noinline nounwind uwtable
define dso_local i32 @main(i32 %0, i8** %1) #0 {
  %3 = alloca i32, align 4
  %4 = alloca i32, align 4
  %5 = alloca i8**, align 8
  %6 = alloca i32, align 4
  %7 = alloca i32, align 4
  %8 = alloca i32, align 4
  store i32 0, i32* %3, align 4
  store i32 %0, i32* %4, align 4
  store i8** %1, i8*** %5, align 8
  store i32 0, i32* %8, align 4
  %9 = call i32 (i8*, ...) @__isoc99_scanf(i8* getelementptr inbounds ([3 x i8], [3 x i8]* @.str, i64 0, i64 0), i32* %6)
  store i32 1, i32* %7, align 4
  br label %10

10:                                               ; preds = %76, %2
  %11 = load i32, i32* %7, align 4
  %12 = load i32, i32* %6, align 4
  %13 = icmp sle i32 %11, %12
  br i1 %13, label %14, label %79

14:                                               ; preds = %10
  %15 = load i32, i32* %7, align 4
  %16 = srem i32 %15, 7
  %17 = icmp eq i32 %16, 0
  br i1 %17, label %69, label %18

18:                                               ; preds = %14
  %19 = load i32, i32* %7, align 4
  %20 = icmp eq i32 %19, 70
  br i1 %20, label %69, label %21

21:                                               ; preds = %18
  %22 = load i32, i32* %7, align 4
  %23 = icmp eq i32 %22, 71
  br i1 %23, label %69, label %24

24:                                               ; preds = %21
  %25 = load i32, i32* %7, align 4
  %26 = icmp eq i32 %25, 72
  br i1 %26, label %69, label %27

27:                                               ; preds = %24
  %28 = load i32, i32* %7, align 4
  %29 = icmp eq i32 %28, 73
  br i1 %29, label %69, label %30

30:                                               ; preds = %27
  %31 = load i32, i32* %7, align 4
  %32 = icmp eq i32 %31, 74
  br i1 %32, label %69, label %33

33:                                               ; preds = %30
  %34 = load i32, i32* %7, align 4
  %35 = icmp eq i32 %34, 75
  br i1 %35, label %69, label %36

36:                                               ; preds = %33
  %37 = load i32, i32* %7, align 4
  %38 = icmp eq i32 %37, 76
  br i1 %38, label %69, label %39

39:                                               ; preds = %36
  %40 = load i32, i32* %7, align 4
  %41 = icmp eq i32 %40, 78
  br i1 %41, label %69, label %42

42:                                               ; preds = %39
  %43 = load i32, i32* %7, align 4
  %44 = icmp eq i32 %43, 79
  br i1 %44, label %69, label %45

45:                                               ; preds = %42
  %46 = load i32, i32* %7, align 4
  %47 = icmp eq i32 %46, 17
  br i1 %47, label %69, label %48

48:                                               ; preds = %45
  %49 = load i32, i32* %7, align 4
  %50 = icmp eq i32 %49, 27
  br i1 %50, label %69, label %51

51:                                               ; preds = %48
  %52 = load i32, i32* %7, align 4
  %53 = icmp eq i32 %52, 37
  br i1 %53, label %69, label %54

54:                                               ; preds = %51
  %55 = load i32, i32* %7, align 4
  %56 = icmp eq i32 %55, 47
  br i1 %56, label %69, label %57

57:                                               ; preds = %54
  %58 = load i32, i32* %7, align 4
  %59 = icmp eq i32 %58, 57
  br i1 %59, label %69, label %60

60:                                               ; preds = %57
  %61 = load i32, i32* %7, align 4
  %62 = icmp eq i32 %61, 67
  br i1 %62, label %69, label %63

63:                                               ; preds = %60
  %64 = load i32, i32* %7, align 4
  %65 = icmp eq i32 %64, 87
  br i1 %65, label %69, label %66

66:                                               ; preds = %63
  %67 = load i32, i32* %7, align 4
  %68 = icmp eq i32 %67, 97
  br i1 %68, label %69, label %70

69:                                               ; preds = %66, %63, %60, %57, %54, %51, %48, %45, %42, %39, %36, %33, %30, %27, %24, %21, %18, %14
  br label %76

70:                                               ; preds = %66
  %71 = load i32, i32* %7, align 4
  %72 = load i32, i32* %7, align 4
  %73 = mul nsw i32 %71, %72
  %74 = load i32, i32* %8, align 4
  %75 = add nsw i32 %74, %73
  store i32 %75, i32* %8, align 4
  br label %76

76:                                               ; preds = %70, %69
  %77 = load i32, i32* %7, align 4
  %78 = add nsw i32 %77, 1
  store i32 %78, i32* %7, align 4
  br label %10

79:                                               ; preds = %10
  %80 = load i32, i32* %8, align 4
  %81 = call i32 (i8*, ...) @printf(i8* getelementptr inbounds ([3 x i8], [3 x i8]* @.str, i64 0, i64 0), i32 %80)
  ret i32 0
}

declare dso_local i32 @__isoc99_scanf(i8*, ...) #1

declare dso_local i32 @printf(i8*, ...) #1


!llvm.module.flags = !{!0}
!llvm.ident = !{!1}

!0 = !{i32 1, !"wchar_size", i32 4}
!1 = !{!"clang version 10.0.0-4ubuntu1 "}
